target datalayout = "e-m:e-p270:32:32-p271:32:32-p272:64:64-i64:64-i128:128-f80:128-n8:16:32:64-S128"
target triple = "x86_64-pc-linux-gnu"

%struct.h223_lc_params = type { i32, ptr, i8, ptr }
%struct.h223_al3_params = type { i8, i32 }

@h223_lc_params_temp = internal global ptr null, align 8

; Function Attrs: null_pointer_is_valid sspstrong uwtable
define internal i32 @dissect_h245_T_controlFieldOctets(ptr noundef %0, i32 noundef %1, ptr noundef %2, ptr noundef %3, i32 noundef %4) #1 {
  %6 = alloca ptr, align 8
  %7 = alloca i32, align 4
  %8 = alloca ptr, align 8
  %9 = alloca ptr, align 8
  %10 = alloca i32, align 4
  %11 = alloca i32, align 4
  store ptr %0, ptr %6, align 8
  store i32 %1, ptr %7, align 4
  store ptr %2, ptr %8, align 8
  store ptr %3, ptr %9, align 8
  store i32 %4, ptr %10, align 4
  call void @llvm.lifetime.start.p0(i64 4, ptr %11) #12
  %12 = load ptr, ptr %6, align 8
  %13 = load i32, ptr %7, align 4
  %14 = load ptr, ptr %8, align 8
  %15 = load ptr, ptr %9, align 8
  %16 = load i32, ptr %10, align 4
  %17 = call i32 @dissect_per_constrained_integer(ptr noundef %12, i32 noundef %13, ptr noundef %14, ptr noundef %15, i32 noundef %16, i32 noundef 0, i32 noundef 2, ptr noundef %11, i1 noundef zeroext false)
  store i32 %17, ptr %7, align 4
  %18 = load ptr, ptr @h223_lc_params_temp, align 8
  %19 = icmp ne ptr %18, null
  br i1 %19, label %20, label %33

20:                                               ; preds = %5
  %21 = load ptr, ptr @h223_lc_params_temp, align 8
  %22 = getelementptr inbounds nuw %struct.h223_lc_params, ptr %21, i32 0, i32 1
  %23 = load ptr, ptr %22, align 8
  %24 = icmp ne ptr %23, null
  br i1 %24, label %25, label %33

25:                                               ; preds = %20
  %26 = load i32, ptr %11, align 4
  %27 = and i32 %26, 3
  %28 = trunc i32 %27 to i8
  %29 = load ptr, ptr @h223_lc_params_temp, align 8
  %30 = getelementptr inbounds nuw %struct.h223_lc_params, ptr %29, i32 0, i32 1
  %31 = load ptr, ptr %30, align 8
  %32 = getelementptr inbounds nuw %struct.h223_al3_params, ptr %31, i32 0, i32 0
  store i8 %28, ptr %32, align 4
  br label %33

33:                                               ; preds = %25, %20, %5
  %34 = load i32, ptr %7, align 4
  call void @llvm.lifetime.end.p0(i64 4, ptr %11) #12
  ret i32 %34
}